; Function Attrs: nounwind uwtable
define internal ptr @sock_recvmsg(ptr noundef %0, ptr noundef %1) #0 {
  %3 = alloca i64, align 8
  %4 = alloca i64, align 8
  %5 = alloca i32, align 4
  %6 = alloca %struct.iovec, align 8
  %7 = alloca ptr, align 8
  call void @llvm.lifetime.start.p0(i64 8, ptr nonnull %3) #13
  call void @llvm.lifetime.start.p0(i64 8, ptr nonnull %4) #13
  store i64 0, ptr %4, align 8, !tbaa !47
  call void @llvm.lifetime.start.p0(i64 4, ptr nonnull %5) #13
  store i32 0, ptr %5, align 4, !tbaa !35
  call void @llvm.lifetime.start.p0(i64 16, ptr nonnull %6) #13
  call void @llvm.lifetime.start.p0(i64 8, ptr nonnull %7) #13
  %8 = call i32 (ptr, ptr, ...) @PyArg_ParseTuple(ptr noundef %1, ptr noundef nonnull @.str.628, ptr noundef nonnull %3, ptr noundef nonnull %4, ptr noundef nonnull %5) #13
  %.not = icmp eq i32 %8, 0
  br i1 %.not, label %Py_XDECREF.exit, label %9

9:                                                ; preds = %2
  %10 = load i64, ptr %3, align 8, !tbaa !47
  %11 = icmp slt i64 %10, 0
  br i1 %11, label %12, label %14

12:                                               ; preds = %9
  %13 = load ptr, ptr @PyExc_ValueError, align 8, !tbaa !19
  call void @PyErr_SetString(ptr noundef %13, ptr noundef nonnull @.str.629) #13
  br label %Py_XDECREF.exit

14:                                               ; preds = %9
  %15 = call ptr @PyBytes_FromStringAndSize(ptr noundef null, i64 noundef %10) #13
  store ptr %15, ptr %7, align 8, !tbaa !19
  %16 = icmp eq ptr %15, null
  br i1 %16, label %Py_XDECREF.exit, label %17

17:                                               ; preds = %14
  %18 = getelementptr inbounds nuw i8, ptr %15, i64 32
  store ptr %18, ptr %6, align 8, !tbaa !164
  %19 = load i64, ptr %3, align 8, !tbaa !47
  %20 = getelementptr inbounds nuw i8, ptr %6, i64 8
  store i64 %19, ptr %20, align 8, !tbaa !166
  %21 = load i32, ptr %5, align 4, !tbaa !35
  %22 = load i64, ptr %4, align 8, !tbaa !47
  %23 = call fastcc ptr @sock_recvmsg_guts(ptr noundef %0, ptr noundef nonnull %6, i32 noundef 1, i32 noundef %21, i64 noundef %22, ptr noundef nonnull @makeval_recvmsg, ptr noundef nonnull %7)
  %24 = load ptr, ptr %7, align 8, !tbaa !19
  %.not.i = icmp eq ptr %24, null
  br i1 %.not.i, label %Py_XDECREF.exit, label %25

25:                                               ; preds = %17
  %26 = load i32, ptr %24, align 8, !tbaa !18
  %.not.i.i = icmp sgt i32 %26, -1
  br i1 %.not.i.i, label %27, label %Py_XDECREF.exit

27:                                               ; preds = %25
  %28 = add nsw i32 %26, -1
  store i32 %28, ptr %24, align 8, !tbaa !18
  %29 = icmp eq i32 %28, 0
  br i1 %29, label %30, label %Py_XDECREF.exit

30:                                               ; preds = %27
  call void @_Py_Dealloc(ptr noundef nonnull %24) #13
  br label %Py_XDECREF.exit

Py_XDECREF.exit:                                  ; preds = %30, %27, %25, %17, %14, %2, %12
  %.0 = phi ptr [ null, %12 ], [ null, %2 ], [ null, %14 ], [ %23, %17 ], [ %23, %25 ], [ %23, %27 ], [ %23, %30 ]
  call void @llvm.lifetime.end.p0(i64 8, ptr nonnull %7) #13
  call void @llvm.lifetime.end.p0(i64 16, ptr nonnull %6) #13
  call void @llvm.lifetime.end.p0(i64 4, ptr nonnull %5) #13
  call void @llvm.lifetime.end.p0(i64 8, ptr nonnull %4) #13
  call void @llvm.lifetime.end.p0(i64 8, ptr nonnull %3) #13
  ret ptr %.0
}